target datalayout = "e-m:e-p270:32:32-p271:32:32-p272:64:64-i64:64-i128:128-f80:128-n8:16:32:64-S128"
target triple = "x86_64-pc-linux-gnu"

@ossl_s_to_der = internal global i64 0, align 8

; Function Attrs: nounwind sspstrong uwtable
define i64 @ossl_to_der(i64 noundef %0) #0 {
  %2 = alloca i64, align 8
  %3 = alloca i64, align 8
  store i64 %0, ptr %2, align 8, !tbaa !6
  call void @llvm.lifetime.start.p0(i64 8, ptr %3) #22
  %4 = load i64, ptr %2, align 8, !tbaa !6
  %5 = load i64, ptr @ossl_s_to_der, align 8, !tbaa !6
  %6 = call i64 (i64, i64, i32, ...) @rb_funcall(i64 noundef %4, i64 noundef %5, i32 noundef 0)
  store i64 %6, ptr %3, align 8, !tbaa !6
  %7 = call i64 @rb_string_value(ptr noundef %3)
  %8 = load i64, ptr %3, align 8, !tbaa !6
  call void @llvm.lifetime.end.p0(i64 8, ptr %3) #22
  ret i64 %8
}

; Function Attrs: nounwind sspstrong uwtable
define i64 @ossl_to_der_if_possible(i64 noundef %0) #0 {
  %2 = alloca i64, align 8
  %3 = alloca i64, align 8
  store i64 %0, ptr %3, align 8, !tbaa !6
  %4 = load i64, ptr %3, align 8, !tbaa !6
  %5 = load i64, ptr @ossl_s_to_der, align 8, !tbaa !6
  %6 = call i32 @rb_respond_to(i64 noundef %4, i64 noundef %5)
  %7 = icmp ne i32 %6, 0
  br i1 %7, label %8, label %11

8:                                                ; preds = %1
  %9 = load i64, ptr %3, align 8, !tbaa !6
  %10 = call i64 @ossl_to_der(i64 noundef %9)
  store i64 %10, ptr %2, align 8
  br label %13

11:                                               ; preds = %1
  %12 = load i64, ptr %3, align 8, !tbaa !6
  store i64 %12, ptr %2, align 8
  br label %13

13:                                               ; preds = %11, %8
  %14 = load i64, ptr %2, align 8
  ret i64 %14
}