; Function Attrs: nounwind sspstrong uwtable
define i64 @ossl_to_der_if_possible(i64 noundef %0) local_unnamed_addr #0 {
  %2 = alloca i64, align 8
  %3 = load i64, ptr @ossl_s_to_der, align 8, !tbaa !13
  %4 = tail call i32 @rb_respond_to(i64 noundef %0, i64 noundef %3) #15
  %.not = icmp eq i32 %4, 0
  br i1 %.not, label %10, label %5

5:                                                ; preds = %1
  call void @llvm.lifetime.start.p0(i64 8, ptr nonnull %2) #15
  %6 = load i64, ptr @ossl_s_to_der, align 8, !tbaa !13
  %7 = tail call i64 (i64, i64, i32, ...) @rb_funcall(i64 noundef %0, i64 noundef %6, i32 noundef 0) #15
  store i64 %7, ptr %2, align 8, !tbaa !13
  %8 = call i64 @rb_string_value(ptr noundef nonnull %2) #15
  %9 = load i64, ptr %2, align 8, !tbaa !13
  call void @llvm.lifetime.end.p0(i64 8, ptr nonnull %2) #15
  br label %10

10:                                               ; preds = %1, %5
  %.0 = phi i64 [ %9, %5 ], [ %0, %1 ]
  ret i64 %.0
}